; Function Attrs: null_pointer_is_valid sspstrong uwtable
define internal i32 @dissect_e2ap_RANfunctionOID(ptr noundef %0, i32 noundef %1, ptr noundef %2, ptr noundef %3, i32 noundef %4) #2 {
  %6 = alloca ptr, align 8
  call void @llvm.lifetime.start.p0(i64 8, ptr nonnull %6) #12
  %7 = call i32 @dissect_per_PrintableString(ptr noundef %0, i32 noundef %1, ptr noundef %2, ptr noundef %3, i32 noundef %4, i32 noundef 1, i32 noundef 1000, i1 noundef zeroext true, ptr noundef nonnull %6)
  %8 = getelementptr inbounds nuw i8, ptr %2, i64 16
  %9 = load ptr, ptr %8, align 8
  %10 = load ptr, ptr %6, align 8
  %11 = getelementptr inbounds nuw i8, ptr %9, i64 408
  %12 = load ptr, ptr %11, align 8
  %13 = call i32 @tvb_captured_length(ptr noundef %10)
  %14 = call ptr @tvb_get_string_enc(ptr noundef %12, ptr noundef %10, i32 noundef 0, i32 noundef %13, i32 noundef 0)
  call void @e2ap_update_ran_function_mapping(ptr noundef %9, ptr noundef %3, ptr noundef %10, ptr noundef %14)
  call void @llvm.lifetime.end.p0(i64 8, ptr nonnull %6) #12
  ret i32 %7
}